(dp0
S'Where do I find water?'
p1
(dp2
S'answer'
p3
S'At the bubbler'
p4
sS'org'
p5
S'redcross'
p6
sS'expiration'
p7
F1455382262.736813
ssS'What time is sunset?'
p8
(dp9
g3
S'6pm'
p10
sg5
S'un'
p11
sg7
F1455392162.736815
ss.